target datalayout = "e-m:e-p270:32:32-p271:32:32-p272:64:64-i64:64-i128:128-f80:128-n8:16:32:64-S128"
target triple = "x86_64-pc-linux-gnu"

%struct.darktable_t = type { %struct.dt_codepath_t, i32, i32, ptr, ptr, ptr, ptr, ptr, ptr, ptr, ptr, ptr, ptr, ptr, ptr, ptr, ptr, ptr, ptr, ptr, ptr, ptr, ptr, ptr, ptr, ptr, ptr, ptr, ptr, ptr, [64 x %struct.dt_pthread_mutex_t], %struct.dt_pthread_mutex_t, %struct.dt_pthread_mutex_t, %struct.dt_pthread_mutex_t, %struct.dt_pthread_mutex_t, %struct.dt_pthread_mutex_t, ptr, ptr, ptr, ptr, ptr, ptr, ptr, ptr, ptr, ptr, ptr, ptr, ptr, %struct.dt_lua_state_t, ptr, double, ptr, i32, [47 x i32], i32, i32, ptr, ptr, %struct.dt_sys_resources_t, %struct.dt_backthumb_t, %struct.dt_gimp_t }
%struct.dt_codepath_t = type { i8, [3 x i8] }
%struct.dt_pthread_mutex_t = type { %union.pthread_mutex_t }
%union.pthread_mutex_t = type { %struct.__pthread_mutex_s }
%struct.__pthread_mutex_s = type { i32, i32, i32, i32, i32, i16, i16, %struct.__pthread_internal_list }
%struct.__pthread_internal_list = type { ptr, ptr }
%struct.dt_lua_state_t = type { i32 }
%struct.dt_sys_resources_t = type { i64, i64, ptr, ptr, i32 }
%struct.dt_backthumb_t = type { double, double, i32, i32, i32, i32 }
%struct.dt_gimp_t = type { i32, ptr, ptr, i32, i32 }
%struct.dt_iop_module_t = type { i32, ptr, ptr, ptr, ptr, ptr, ptr, ptr, ptr, ptr, ptr, ptr, ptr, ptr, ptr, ptr, ptr, ptr, ptr, ptr, ptr, ptr, ptr, ptr, ptr, ptr, ptr, ptr, ptr, ptr, ptr, ptr, ptr, ptr, ptr, ptr, ptr, ptr, ptr, ptr, ptr, ptr, ptr, ptr, ptr, ptr, ptr, ptr, ptr, ptr, ptr, ptr, ptr, ptr, ptr, ptr, ptr, [20 x i8], i32, i32, i32, i32, i32, i32, i32, [8 x i8], [4 x float], [4 x float], [4 x float], [4 x float], [4 x float], [4 x float], ptr, %struct.dt_dev_histogram_stats_t, [4 x i32], i32, i32, ptr, i32, i32, ptr, ptr, i32, ptr, %struct.dt_pthread_mutex_t, ptr, ptr, ptr, ptr, %struct.anon, ptr, ptr, ptr, ptr, ptr, ptr, ptr, i32, ptr, ptr, ptr, ptr, ptr, ptr, ptr, i32, ptr, i32, [128 x i8], i32, ptr, ptr, i32, [12 x i8] }
%struct.dt_dev_histogram_stats_t = type { i32, i64, i32, i32 }
%struct.anon = type { %struct.anon.0, %struct.anon.1 }
%struct.anon.0 = type { ptr, ptr }
%struct.anon.1 = type { ptr, i32 }
%struct.dt_iop_gui_blend_data_t = type { i32, i32, i32, i32, i32, i32, i32, ptr, ptr, ptr, ptr, ptr, ptr, ptr, ptr, ptr, ptr, ptr, ptr, ptr, [2 x %struct.dt_iop_gui_blendif_filter_t], ptr, ptr, ptr, ptr, ptr, ptr, ptr, ptr, ptr, ptr, ptr, ptr, i32, i32, ptr, i32, [8 x [2 x i32]], i32, i32, ptr, i32, ptr, ptr, ptr, [5 x ptr], [5 x i32], ptr, ptr, ptr, i32, ptr, ptr, i32, %struct.dt_pthread_mutex_t }
%struct.dt_iop_gui_blendif_filter_t = type { ptr, ptr, [4 x ptr], ptr, ptr, ptr }
%struct.dt_develop_blend_params_t = type { i32, i32, i32, float, float, i32, i32, i32, float, i32, float, float, float, float, i32, [2 x i32], [64 x float], [16 x float], [20 x i8], i32, i32, i32 }

@darktable = external global %struct.darktable_t, align 8

; Function Attrs: nounwind uwtable
define internal void @_blendop_masks_combine_callback(ptr noundef %0, ptr noundef %1) #0 {
  %3 = alloca ptr, align 8
  %4 = alloca ptr, align 8
  %5 = alloca ptr, align 8
  %6 = alloca i32, align 4
  %7 = alloca i32, align 4
  %8 = alloca i32, align 4
  store ptr %0, ptr %3, align 8, !tbaa !11
  store ptr %1, ptr %4, align 8, !tbaa !31
  call void @llvm.lifetime.start.p0(i64 8, ptr %5) #11
  %9 = load ptr, ptr %4, align 8, !tbaa !31
  %10 = getelementptr inbounds nuw %struct.dt_iop_gui_blend_data_t, ptr %9, i32 0, i32 7
  %11 = load ptr, ptr %10, align 8, !tbaa !134
  %12 = getelementptr inbounds nuw %struct.dt_iop_module_t, ptr %11, i32 0, i32 86
  %13 = load ptr, ptr %12, align 8, !tbaa !77
  store ptr %13, ptr %5, align 8, !tbaa !78
  call void @llvm.lifetime.start.p0(i64 4, ptr %6) #11
  %14 = load ptr, ptr %4, align 8, !tbaa !31
  %15 = getelementptr inbounds nuw %struct.dt_iop_gui_blend_data_t, ptr %14, i32 0, i32 23
  %16 = load ptr, ptr %15, align 8, !tbaa !256
  %17 = call ptr @dt_bauhaus_combobox_get_data(ptr noundef %16)
  %18 = ptrtoint ptr %17 to i64
  %19 = trunc i64 %18 to i32
  store i32 %19, ptr %6, align 4, !tbaa !80
  %20 = load ptr, ptr %5, align 8, !tbaa !78
  %21 = getelementptr inbounds nuw %struct.dt_develop_blend_params_t, ptr %20, i32 0, i32 5
  %22 = load i32, ptr %21, align 4, !tbaa !131
  %23 = and i32 %22, -4
  store i32 %23, ptr %21, align 4, !tbaa !131
  %24 = load i32, ptr %6, align 4, !tbaa !80
  %25 = load ptr, ptr %5, align 8, !tbaa !78
  %26 = getelementptr inbounds nuw %struct.dt_develop_blend_params_t, ptr %25, i32 0, i32 5
  %27 = load i32, ptr %26, align 4, !tbaa !131
  %28 = or i32 %27, %24
  store i32 %28, ptr %26, align 4, !tbaa !131
  %29 = load ptr, ptr %4, align 8, !tbaa !31
  %30 = getelementptr inbounds nuw %struct.dt_iop_gui_blend_data_t, ptr %29, i32 0, i32 0
  %31 = load i32, ptr %30, align 8, !tbaa !155
  %32 = icmp ne i32 %31, 0
  br i1 %32, label %33, label %76

33:                                               ; preds = %2
  %34 = load ptr, ptr %4, align 8, !tbaa !31
  %35 = getelementptr inbounds nuw %struct.dt_iop_gui_blend_data_t, ptr %34, i32 0, i32 2
  %36 = load i32, ptr %35, align 8, !tbaa !156
  %37 = icmp ne i32 %36, 0
  br i1 %37, label %38, label %76

38:                                               ; preds = %33
  call void @llvm.lifetime.start.p0(i64 4, ptr %7) #11
  %39 = load ptr, ptr %4, align 8, !tbaa !31
  %40 = getelementptr inbounds nuw %struct.dt_iop_gui_blend_data_t, ptr %39, i32 0, i32 6
  %41 = load i32, ptr %40, align 8, !tbaa !161
  %42 = icmp eq i32 %41, 2
  %43 = select i1 %42, i32 13175, i32 30719
  store i32 %43, ptr %7, align 4, !tbaa !80
  call void @llvm.lifetime.start.p0(i64 4, ptr %8) #11
  %44 = load i32, ptr %7, align 4, !tbaa !80
  %45 = load ptr, ptr %5, align 8, !tbaa !78
  %46 = getelementptr inbounds nuw %struct.dt_develop_blend_params_t, ptr %45, i32 0, i32 7
  %47 = load i32, ptr %46, align 4, !tbaa !129
  %48 = xor i32 %47, -1
  %49 = and i32 %44, %48
  store i32 %49, ptr %8, align 4, !tbaa !80
  %50 = load i32, ptr %8, align 4, !tbaa !80
  %51 = shl i32 %50, 16
  %52 = xor i32 %51, -1
  %53 = load ptr, ptr %5, align 8, !tbaa !78
  %54 = getelementptr inbounds nuw %struct.dt_develop_blend_params_t, ptr %53, i32 0, i32 7
  %55 = load i32, ptr %54, align 4, !tbaa !129
  %56 = and i32 %55, %52
  store i32 %56, ptr %54, align 4, !tbaa !129
  %57 = load ptr, ptr %5, align 8, !tbaa !78
  %58 = getelementptr inbounds nuw %struct.dt_develop_blend_params_t, ptr %57, i32 0, i32 5
  %59 = load i32, ptr %58, align 4, !tbaa !131
  %60 = and i32 %59, 2
  %61 = icmp ne i32 %60, 0
  br i1 %61, label %62, label %69

62:                                               ; preds = %38
  %63 = load i32, ptr %8, align 4, !tbaa !80
  %64 = shl i32 %63, 16
  %65 = load ptr, ptr %5, align 8, !tbaa !78
  %66 = getelementptr inbounds nuw %struct.dt_develop_blend_params_t, ptr %65, i32 0, i32 7
  %67 = load i32, ptr %66, align 4, !tbaa !129
  %68 = or i32 %67, %64
  store i32 %68, ptr %66, align 4, !tbaa !129
  br label %69

69:                                               ; preds = %62, %38
  %70 = load ptr, ptr %4, align 8, !tbaa !31
  %71 = getelementptr inbounds nuw %struct.dt_iop_gui_blend_data_t, ptr %70, i32 0, i32 7
  %72 = load ptr, ptr %71, align 8, !tbaa !134
  %73 = load ptr, ptr %4, align 8, !tbaa !31
  %74 = getelementptr inbounds nuw %struct.dt_iop_gui_blend_data_t, ptr %73, i32 0, i32 36
  %75 = load i32, ptr %74, align 8, !tbaa !79
  call void @_blendop_blendif_update_tab(ptr noundef %72, i32 noundef %75)
  call void @llvm.lifetime.end.p0(i64 4, ptr %8) #11
  call void @llvm.lifetime.end.p0(i64 4, ptr %7) #11
  br label %76

76:                                               ; preds = %69, %33, %2
  %77 = load ptr, ptr %4, align 8, !tbaa !31
  %78 = getelementptr inbounds nuw %struct.dt_iop_gui_blend_data_t, ptr %77, i32 0, i32 7
  %79 = load ptr, ptr %78, align 8, !tbaa !134
  %80 = call i32 @_blendif_clean_output_channels(ptr noundef %79)
  %81 = load ptr, ptr getelementptr inbounds nuw (%struct.darktable_t, ptr @darktable, i32 0, i32 9), align 8, !tbaa !132
  %82 = load ptr, ptr %4, align 8, !tbaa !31
  %83 = getelementptr inbounds nuw %struct.dt_iop_gui_blend_data_t, ptr %82, i32 0, i32 7
  %84 = load ptr, ptr %83, align 8, !tbaa !134
  call void @dt_dev_add_history_item(ptr noundef %81, ptr noundef %84, i32 noundef 1)
  call void @llvm.lifetime.end.p0(i64 4, ptr %6) #11
  call void @llvm.lifetime.end.p0(i64 8, ptr %5) #11
  ret void
}