; Function Attrs: nounwind uwtable
define internal void @_blendop_masks_combine_callback(ptr readnone captures(none) %0, ptr noundef readonly captures(none) %1) #0 {
  %3 = getelementptr inbounds nuw i8, ptr %1, i64 32
  %4 = load ptr, ptr %3, align 8, !tbaa !79
  %5 = getelementptr inbounds nuw i8, ptr %4, i64 760
  %6 = load ptr, ptr %5, align 8, !tbaa !71
  %7 = getelementptr inbounds nuw i8, ptr %1, i64 296
  %8 = load ptr, ptr %7, align 8, !tbaa !224
  %9 = tail call ptr @dt_bauhaus_combobox_get_data(ptr noundef %8) #18
  %10 = ptrtoint ptr %9 to i64
  %11 = trunc i64 %10 to i32
  %12 = getelementptr inbounds nuw i8, ptr %6, i64 20
  %13 = load i32, ptr %12, align 4, !tbaa !118
  %14 = and i32 %13, -4
  %15 = or i32 %14, %11
  store i32 %15, ptr %12, align 4, !tbaa !118
  %16 = load i32, ptr %1, align 8, !tbaa !141
  %.not = icmp eq i32 %16, 0
  br i1 %.not, label %37, label %17

17:                                               ; preds = %2
  %18 = getelementptr inbounds nuw i8, ptr %1, i64 8
  %19 = load i32, ptr %18, align 8, !tbaa !142
  %.not18 = icmp eq i32 %19, 0
  br i1 %.not18, label %37, label %20

20:                                               ; preds = %17
  %21 = getelementptr inbounds nuw i8, ptr %1, i64 24
  %22 = load i32, ptr %21, align 8, !tbaa !147
  %23 = icmp eq i32 %22, 2
  %24 = select i1 %23, i32 13175, i32 30719
  %25 = getelementptr inbounds nuw i8, ptr %6, i64 28
  %26 = load i32, ptr %25, align 4, !tbaa !116
  %27 = xor i32 %26, -1
  %28 = and i32 %24, %27
  %29 = shl nuw nsw i32 %28, 16
  %30 = xor i32 %29, -1
  %31 = and i32 %26, %30
  %32 = and i32 %11, 2
  %.not19 = icmp eq i32 %32, 0
  %33 = or i32 %29, %26
  %spec.select = select i1 %.not19, i32 %31, i32 %33
  store i32 %spec.select, ptr %25, align 4, !tbaa !116
  %34 = load ptr, ptr %3, align 8, !tbaa !79
  %35 = getelementptr inbounds nuw i8, ptr %1, i64 392
  %36 = load i32, ptr %35, align 8, !tbaa !72
  tail call fastcc void @_blendop_blendif_update_tab(ptr noundef %34, i32 noundef %36)
  br label %37

37:                                               ; preds = %20, %17, %2
  %38 = load ptr, ptr %3, align 8, !tbaa !79
  %39 = tail call fastcc i32 @_blendif_clean_output_channels(ptr noundef %38)
  %40 = load ptr, ptr getelementptr inbounds nuw (i8, ptr @darktable, i64 64), align 8, !tbaa !119
  %41 = load ptr, ptr %3, align 8, !tbaa !79
  tail call void @dt_dev_add_history_item(ptr noundef %40, ptr noundef %41, i32 noundef 1) #18
  ret void
}